; Function Attrs: mustprogress nofree norecurse nosync nounwind willreturn memory(argmem: write) uwtable
define range(i32 0, 2) i32 @ossl_sha3_init(ptr noundef writeonly captures(none) %0, i8 noundef zeroext %1, i64 noundef %2) local_unnamed_addr #0 {
  %4 = shl i64 %2, 1
  %5 = sub i64 1600, %4
  %6 = icmp ult i64 %5, 1352
  br i1 %6, label %7, label %15

7:                                                ; preds = %3
  %8 = lshr i64 %5, 3
  tail call void @llvm.memset.p0.i64(ptr noundef nonnull align 8 dereferenceable(200) %0, i8 0, i64 200, i1 false)
  %9 = getelementptr inbounds nuw i8, ptr %0, i64 384
  store i64 0, ptr %9, align 8, !tbaa !3
  %10 = getelementptr inbounds nuw i8, ptr %0, i64 424
  store i32 0, ptr %10, align 8, !tbaa !11
  %11 = getelementptr inbounds nuw i8, ptr %0, i64 368
  store i64 %8, ptr %11, align 8, !tbaa !12
  %12 = lshr i64 %2, 3
  %13 = getelementptr inbounds nuw i8, ptr %0, i64 376
  store i64 %12, ptr %13, align 8, !tbaa !13
  %14 = getelementptr inbounds nuw i8, ptr %0, i64 392
  store i8 %1, ptr %14, align 8, !tbaa !14
  br label %15

15:                                               ; preds = %3, %7
  %.0 = phi i32 [ 1, %7 ], [ 0, %3 ]
  ret i32 %.0
}